target datalayout = "e-m:e-p270:32:32-p271:32:32-p272:64:64-i64:64-i128:128-f80:128-n8:16:32:64-S128"
target triple = "x86_64-pc-linux-gnu"

%struct.If_Man_t_ = type { ptr, ptr, ptr, ptr, ptr, ptr, ptr, ptr, [5 x i32], i32, float, float, float, float, i32, float, i32, i32, [4 x ptr], ptr, i32, i32, i32, ptr, [3 x [32 x i32]], i32, i32, i32, ptr, ptr, ptr, ptr, ptr, ptr, ptr, i32, i32, i32, [16 x i32], i32, i32, i32, i32, ptr, ptr, ptr, ptr, ptr, i32, i32, [32 x i32], [32 x i32], i32, i32, i32, i32, ptr, [16 x ptr], [16 x ptr], [16 x ptr], [16 x ptr], [16 x ptr], [16 x ptr], [16 x ptr], ptr, ptr, ptr, ptr, [32 x i8], i32, i32, i32, [6 x i64], [2 x i32], [2 x i32], ptr, [15 x i32], ptr, ptr, ptr, [16 x i32], ptr, ptr, ptr, ptr, [2 x i32], [2 x i32], [2 x ptr], ptr }
%struct.Vec_Ptr_t_ = type { i32, i32, ptr }
%struct.If_Obj_t_ = type { i32, i32, i32, i32, i32, i32, ptr, ptr, ptr, float, float, float, %union.anon, ptr, %struct.If_Cut_t_ }
%union.anon = type { ptr }
%struct.If_Cut_t_ = type <{ float, float, float, float, i32, i32, i32, i48, [0 x i32] }>

; Function Attrs: nounwind uwtable
define internal ptr @If_ObjFanin0(ptr noundef %0) #0 {
  %2 = alloca ptr, align 8
  store ptr %0, ptr %2, align 8
  %3 = load ptr, ptr %2, align 8
  %4 = getelementptr inbounds %struct.If_Obj_t_, ptr %3, i32 0, i32 6
  %5 = load ptr, ptr %4, align 8
  ret ptr %5
}

; Function Attrs: nounwind uwtable
define internal ptr @Vec_PtrEntry(ptr noundef %0, i32 noundef %1) #0 {
  %3 = alloca ptr, align 8
  %4 = alloca i32, align 4
  store ptr %0, ptr %3, align 8
  store i32 %1, ptr %4, align 4
  %5 = load ptr, ptr %3, align 8
  %6 = getelementptr inbounds %struct.Vec_Ptr_t_, ptr %5, i32 0, i32 2
  %7 = load ptr, ptr %6, align 8
  %8 = load i32, ptr %4, align 4
  %9 = sext i32 %8 to i64
  %10 = getelementptr inbounds ptr, ptr %7, i64 %9
  %11 = load ptr, ptr %10, align 8
  ret ptr %11
}

; Function Attrs: nounwind uwtable
define internal i32 @Vec_PtrSize(ptr noundef %0) #0 {
  %2 = alloca ptr, align 8
  store ptr %0, ptr %2, align 8
  %3 = load ptr, ptr %2, align 8
  %4 = getelementptr inbounds %struct.Vec_Ptr_t_, ptr %3, i32 0, i32 1
  %5 = load i32, ptr %4, align 4
  ret i32 %5
}

; Function Attrs: nounwind uwtable
define void @If_ManMarkMapping(ptr noundef %0) #0 {
  %2 = alloca ptr, align 8
  %3 = alloca ptr, align 8
  %4 = alloca i32, align 4
  store ptr %0, ptr %2, align 8
  store i32 0, ptr %4, align 4
  br label %5

5:                                                ; preds = %30, %1
  %6 = load i32, ptr %4, align 4
  %7 = load ptr, ptr %2, align 8
  %8 = getelementptr inbounds %struct.If_Man_t_, ptr %7, i32 0, i32 5
  %9 = load ptr, ptr %8, align 8
  %10 = call i32 @Vec_PtrSize(ptr noundef %9)
  %11 = icmp slt i32 %6, %10
  br i1 %11, label %12, label %18

12:                                               ; preds = %5
  %13 = load ptr, ptr %2, align 8
  %14 = getelementptr inbounds %struct.If_Man_t_, ptr %13, i32 0, i32 5
  %15 = load ptr, ptr %14, align 8
  %16 = load i32, ptr %4, align 4
  %17 = call ptr @Vec_PtrEntry(ptr noundef %15, i32 noundef %16)
  store ptr %17, ptr %3, align 8
  br label %18

18:                                               ; preds = %12, %5
  %19 = phi i1 [ false, %5 ], [ true, %12 ]
  br i1 %19, label %20, label %33

20:                                               ; preds = %18
  %21 = load ptr, ptr %3, align 8
  %22 = getelementptr inbounds %struct.If_Obj_t_, ptr %21, i32 0, i32 10
  store float 0x4415AF1D80000000, ptr %22, align 4
  %23 = load ptr, ptr %3, align 8
  %24 = getelementptr inbounds %struct.If_Obj_t_, ptr %23, i32 0, i32 5
  %25 = load i32, ptr %24, align 4
  %26 = load ptr, ptr %3, align 8
  %27 = getelementptr inbounds %struct.If_Obj_t_, ptr %26, i32 0, i32 4
  store i32 %25, ptr %27, align 8
  %28 = load ptr, ptr %3, align 8
  %29 = getelementptr inbounds %struct.If_Obj_t_, ptr %28, i32 0, i32 3
  store i32 0, ptr %29, align 4
  br label %30

30:                                               ; preds = %20
  %31 = load i32, ptr %4, align 4
  %32 = add nsw i32 %31, 1
  store i32 %32, ptr %4, align 4
  br label %5, !llvm.loop !17

33:                                               ; preds = %18
  %34 = load ptr, ptr %2, align 8
  %35 = getelementptr inbounds %struct.If_Man_t_, ptr %34, i32 0, i32 14
  store i32 0, ptr %35, align 8
  %36 = load ptr, ptr %2, align 8
  %37 = getelementptr inbounds %struct.If_Man_t_, ptr %36, i32 0, i32 15
  store float 0.000000e+00, ptr %37, align 4
  %38 = load ptr, ptr %2, align 8
  %39 = getelementptr inbounds %struct.If_Man_t_, ptr %38, i32 0, i32 13
  store float 0.000000e+00, ptr %39, align 4
  store i32 0, ptr %4, align 4
  br label %40

40:                                               ; preds = %64, %33
  %41 = load i32, ptr %4, align 4
  %42 = load ptr, ptr %2, align 8
  %43 = getelementptr inbounds %struct.If_Man_t_, ptr %42, i32 0, i32 4
  %44 = load ptr, ptr %43, align 8
  %45 = call i32 @Vec_PtrSize(ptr noundef %44)
  %46 = icmp slt i32 %41, %45
  br i1 %46, label %47, label %53

47:                                               ; preds = %40
  %48 = load ptr, ptr %2, align 8
  %49 = getelementptr inbounds %struct.If_Man_t_, ptr %48, i32 0, i32 4
  %50 = load ptr, ptr %49, align 8
  %51 = load i32, ptr %4, align 4
  %52 = call ptr @Vec_PtrEntry(ptr noundef %50, i32 noundef %51)
  store ptr %52, ptr %3, align 8
  br label %53

53:                                               ; preds = %47, %40
  %54 = phi i1 [ false, %40 ], [ true, %47 ]
  br i1 %54, label %55, label %67

55:                                               ; preds = %53
  %56 = load ptr, ptr %2, align 8
  %57 = load ptr, ptr %3, align 8
  %58 = call ptr @If_ObjFanin0(ptr noundef %57)
  %59 = call float @If_ManMarkMapping_rec(ptr noundef %56, ptr noundef %58)
  %60 = load ptr, ptr %2, align 8
  %61 = getelementptr inbounds %struct.If_Man_t_, ptr %60, i32 0, i32 13
  %62 = load float, ptr %61, align 4
  %63 = fadd float %62, %59
  store float %63, ptr %61, align 4
  br label %64

64:                                               ; preds = %55
  %65 = load i32, ptr %4, align 4
  %66 = add nsw i32 %65, 1
  store i32 %66, ptr %4, align 4
  br label %40, !llvm.loop !18

67:                                               ; preds = %53
  ret void
}