; Function Attrs: nofree nosync nounwind memory(readwrite, inaccessiblemem: none) uwtable
define void @If_ManMarkMapping(ptr noundef captures(none) %0) local_unnamed_addr #4 {
  %2 = getelementptr inbounds nuw i8, ptr %0, i64 40
  %3 = load ptr, ptr %2, align 8
  %4 = getelementptr i8, ptr %3, i64 4
  %.val2125 = load i32, ptr %4, align 4
  %5 = icmp sgt i32 %.val2125, 0
  br i1 %5, label %.lr.ph, label %.critedge

.lr.ph:                                           ; preds = %1, %.lr.ph
  %indvars.iv = phi i64 [ %indvars.iv.next, %.lr.ph ], [ 0, %1 ]
  %6 = phi ptr [ %15, %.lr.ph ], [ %3, %1 ]
  %7 = getelementptr i8, ptr %6, i64 8
  %.val23 = load ptr, ptr %7, align 8
  %8 = getelementptr inbounds nuw ptr, ptr %.val23, i64 %indvars.iv
  %9 = load ptr, ptr %8, align 8
  %10 = getelementptr inbounds nuw i8, ptr %9, i64 52
  store float 0x4415AF1D80000000, ptr %10, align 4
  %11 = getelementptr inbounds nuw i8, ptr %9, i64 20
  %12 = load i32, ptr %11, align 4
  %13 = getelementptr inbounds nuw i8, ptr %9, i64 16
  store i32 %12, ptr %13, align 8
  %14 = getelementptr inbounds nuw i8, ptr %9, i64 12
  store i32 0, ptr %14, align 4
  %indvars.iv.next = add nuw nsw i64 %indvars.iv, 1
  %15 = load ptr, ptr %2, align 8
  %16 = getelementptr i8, ptr %15, i64 4
  %.val21 = load i32, ptr %16, align 4
  %17 = sext i32 %.val21 to i64
  %18 = icmp slt i64 %indvars.iv.next, %17
  br i1 %18, label %.lr.ph, label %.critedge, !llvm.loop !17

.critedge:                                        ; preds = %.lr.ph, %1
  %19 = getelementptr inbounds nuw i8, ptr %0, i64 104
  store i32 0, ptr %19, align 8
  %20 = getelementptr inbounds nuw i8, ptr %0, i64 108
  store float 0.000000e+00, ptr %20, align 4
  %21 = getelementptr inbounds nuw i8, ptr %0, i64 100
  store float 0.000000e+00, ptr %21, align 4
  %22 = getelementptr inbounds nuw i8, ptr %0, i64 32
  %23 = load ptr, ptr %22, align 8
  %24 = getelementptr i8, ptr %23, i64 4
  %.val27 = load i32, ptr %24, align 4
  %25 = icmp sgt i32 %.val27, 0
  br i1 %25, label %.lr.ph29, label %.critedge2

.lr.ph29:                                         ; preds = %.critedge, %.lr.ph29
  %indvars.iv31 = phi i64 [ %indvars.iv.next32, %.lr.ph29 ], [ 0, %.critedge ]
  %26 = phi ptr [ %34, %.lr.ph29 ], [ %23, %.critedge ]
  %27 = getelementptr i8, ptr %26, i64 8
  %.val22 = load ptr, ptr %27, align 8
  %28 = getelementptr inbounds nuw ptr, ptr %.val22, i64 %indvars.iv31
  %29 = load ptr, ptr %28, align 8
  %30 = getelementptr i8, ptr %29, i64 24
  %.val24 = load ptr, ptr %30, align 8
  %31 = tail call float @If_ManMarkMapping_rec(ptr noundef nonnull %0, ptr noundef %.val24)
  %32 = load float, ptr %21, align 4
  %33 = fadd float %31, %32
  store float %33, ptr %21, align 4
  %indvars.iv.next32 = add nuw nsw i64 %indvars.iv31, 1
  %34 = load ptr, ptr %22, align 8
  %35 = getelementptr i8, ptr %34, i64 4
  %.val = load i32, ptr %35, align 4
  %36 = sext i32 %.val to i64
  %37 = icmp slt i64 %indvars.iv.next32, %36
  br i1 %37, label %.lr.ph29, label %.critedge2, !llvm.loop !18

.critedge2:                                       ; preds = %.lr.ph29, %.critedge
  ret void
}